; Function Attrs: nounwind uwtable
define dso_local noundef ptr @index_beginscan(ptr noundef %0, ptr noundef %1, ptr noundef %2, i32 noundef %3, i32 noundef %4) local_unnamed_addr #0 {
  %6 = tail call fastcc ptr @index_beginscan_internal(ptr noundef %1, i32 noundef %3, i32 noundef %4, ptr noundef %2, ptr noundef null, i1 noundef zeroext false)
  store ptr %0, ptr %6, align 8
  %7 = getelementptr inbounds nuw i8, ptr %6, i64 16
  store ptr %2, ptr %7, align 8
  %8 = getelementptr inbounds nuw i8, ptr %0, i64 320
  %9 = load ptr, ptr %8, align 8
  %10 = getelementptr inbounds nuw i8, ptr %9, i64 88
  %11 = load ptr, ptr %10, align 8
  %12 = tail call ptr %11(ptr noundef %0) #7
  %13 = getelementptr inbounds nuw i8, ptr %6, i64 104
  store ptr %12, ptr %13, align 8
  ret ptr %6
}